; Function Attrs: mustprogress nofree norecurse nounwind willreturn uwtable
define hidden noundef zeroext i1 @_ZN18MutatorAllocRegion13should_retainEP12G1HeapRegion(ptr noundef nonnull align 8 dereferenceable(56) %0, ptr noundef %1) local_unnamed_addr #5 align 2 {
  %3 = getelementptr inbounds i8, ptr %1, i64 16
  %4 = load volatile ptr, ptr %3, align 8
  %5 = getelementptr inbounds i8, ptr %1, i64 8
  %6 = load ptr, ptr %5, align 8
  %7 = ptrtoint ptr %6 to i64
  %8 = ptrtoint ptr %4 to i64
  %9 = sub i64 %7, %8
  %10 = load i64, ptr @MinTLABSize, align 8
  %11 = icmp ult i64 %9, %10
  br i1 %11, label %26, label %12

12:                                               ; preds = %2
  %13 = getelementptr inbounds i8, ptr %0, i64 48
  %14 = load volatile ptr, ptr %13, align 8
  %.not = icmp eq ptr %14, null
  br i1 %.not, label %25, label %15

15:                                               ; preds = %12
  %16 = load volatile ptr, ptr %13, align 8
  %17 = getelementptr inbounds i8, ptr %16, i64 16
  %18 = load volatile ptr, ptr %17, align 8
  %19 = getelementptr inbounds i8, ptr %16, i64 8
  %20 = load ptr, ptr %19, align 8
  %21 = ptrtoint ptr %20 to i64
  %22 = ptrtoint ptr %18 to i64
  %23 = sub i64 %21, %22
  %24 = icmp ult i64 %9, %23
  br i1 %24, label %26, label %25

25:                                               ; preds = %15, %12
  br label %26

26:                                               ; preds = %15, %2, %25
  %.0 = phi i1 [ true, %25 ], [ false, %2 ], [ false, %15 ]
  ret i1 %.0
}